; Function Attrs: nounwind sspstrong uwtable
define internal range(i64 1, 0) i64 @rb_io_buffer_compare(i64 noundef %0, i64 noundef %1) #0 {
  %3 = tail call ptr @rb_check_typeddata(i64 noundef %0, ptr noundef nonnull @rb_io_buffer_type) #25
  %4 = getelementptr inbounds nuw i8, ptr %3, i64 24
  %5 = load i64, ptr %4, align 8, !tbaa !7
  %.not.i.i.i = icmp eq i64 %5, 4
  br i1 %.not.i.i.i, label %io_buffer_validate.exit.thread.i.i, label %io_buffer_validate.exit.i.i

io_buffer_validate.exit.i.i:                      ; preds = %2
  %6 = load ptr, ptr %3, align 8, !tbaa !14
  %7 = getelementptr inbounds nuw i8, ptr %3, i64 8
  %8 = load i64, ptr %7, align 8, !tbaa !16
  %9 = tail call fastcc i32 @io_buffer_validate_slice(i64 noundef %5, ptr noundef %6, i64 noundef %8)
  %.not.i.i = icmp eq i32 %9, 0
  br i1 %.not.i.i, label %10, label %io_buffer_validate.exit.thread.i.i

10:                                               ; preds = %io_buffer_validate.exit.i.i
  %11 = load i64, ptr @rb_eIOBufferInvalidatedError, align 8, !tbaa !22
  tail call void (i64, ptr, ...) @rb_raise(i64 noundef %11, ptr noundef nonnull @.str.119) #26
  unreachable

io_buffer_validate.exit.thread.i.i:               ; preds = %io_buffer_validate.exit.i.i, %2
  %12 = load ptr, ptr %3, align 8, !tbaa !14
  %.not8.i.i = icmp eq ptr %12, null
  br i1 %.not8.i.i, label %rb_io_buffer_get_bytes_for_reading.exit, label %13

13:                                               ; preds = %io_buffer_validate.exit.thread.i.i
  %14 = getelementptr inbounds nuw i8, ptr %3, i64 8
  %15 = load i64, ptr %14, align 8, !tbaa !16
  br label %rb_io_buffer_get_bytes_for_reading.exit

rb_io_buffer_get_bytes_for_reading.exit:          ; preds = %io_buffer_validate.exit.thread.i.i, %13
  %storemerge.i.i = phi i64 [ %15, %13 ], [ 0, %io_buffer_validate.exit.thread.i.i ]
  %16 = tail call ptr @rb_check_typeddata(i64 noundef %1, ptr noundef nonnull @rb_io_buffer_type) #25
  %17 = getelementptr inbounds nuw i8, ptr %16, i64 24
  %18 = load i64, ptr %17, align 8, !tbaa !7
  %.not.i.i.i5 = icmp eq i64 %18, 4
  br i1 %.not.i.i.i5, label %io_buffer_validate.exit.thread.i.i8, label %io_buffer_validate.exit.i.i6

io_buffer_validate.exit.i.i6:                     ; preds = %rb_io_buffer_get_bytes_for_reading.exit
  %19 = load ptr, ptr %16, align 8, !tbaa !14
  %20 = getelementptr inbounds nuw i8, ptr %16, i64 8
  %21 = load i64, ptr %20, align 8, !tbaa !16
  %22 = tail call fastcc i32 @io_buffer_validate_slice(i64 noundef %18, ptr noundef %19, i64 noundef %21)
  %.not.i.i7 = icmp eq i32 %22, 0
  br i1 %.not.i.i7, label %23, label %io_buffer_validate.exit.thread.i.i8

23:                                               ; preds = %io_buffer_validate.exit.i.i6
  %24 = load i64, ptr @rb_eIOBufferInvalidatedError, align 8, !tbaa !22
  tail call void (i64, ptr, ...) @rb_raise(i64 noundef %24, ptr noundef nonnull @.str.119) #26
  unreachable

io_buffer_validate.exit.thread.i.i8:              ; preds = %io_buffer_validate.exit.i.i6, %rb_io_buffer_get_bytes_for_reading.exit
  %25 = load ptr, ptr %16, align 8, !tbaa !14
  %.not8.i.i9 = icmp eq ptr %25, null
  br i1 %.not8.i.i9, label %rb_io_buffer_get_bytes_for_reading.exit11, label %26

26:                                               ; preds = %io_buffer_validate.exit.thread.i.i8
  %27 = getelementptr inbounds nuw i8, ptr %16, i64 8
  %28 = load i64, ptr %27, align 8, !tbaa !16
  br label %rb_io_buffer_get_bytes_for_reading.exit11

rb_io_buffer_get_bytes_for_reading.exit11:        ; preds = %io_buffer_validate.exit.thread.i.i8, %26
  %storemerge.i.i10 = phi i64 [ %28, %26 ], [ 0, %io_buffer_validate.exit.thread.i.i8 ]
  %29 = icmp ult i64 %storemerge.i.i, %storemerge.i.i10
  br i1 %29, label %37, label %30

30:                                               ; preds = %rb_io_buffer_get_bytes_for_reading.exit11
  %31 = icmp ugt i64 %storemerge.i.i, %storemerge.i.i10
  br i1 %31, label %37, label %32

32:                                               ; preds = %30
  %33 = tail call i32 @memcmp(ptr noundef %12, ptr noundef %25, i64 noundef %storemerge.i.i) #31
  %34 = sext i32 %33 to i64
  %35 = shl nsw i64 %34, 1
  %36 = or disjoint i64 %35, 1
  br label %37

37:                                               ; preds = %30, %rb_io_buffer_get_bytes_for_reading.exit11, %32
  %.0 = phi i64 [ %36, %32 ], [ -1, %rb_io_buffer_get_bytes_for_reading.exit11 ], [ 3, %30 ]
  ret i64 %.0
}